; Function Attrs: mustprogress uwtable
define { ptr, ptr } @_ZN9grpc_core5Arena15CreateWithAllocEmmPN17grpc_event_engine12experimental15MemoryAllocatorE(i64 noundef %initial_size, i64 noundef %alloc_size, ptr noundef %memory_allocator) local_unnamed_addr #5 align 2 {
entry:
  %sub.i = add i64 %initial_size, 15
  %and.i = and i64 %sub.i, 4294967280
  %add1.i = add nuw nsw i64 %and.i, 48
  %call.i = tail call noundef ptr @gpr_malloc_aligned(i64 noundef %add1.i, i64 noundef 64)
  %sub.i2 = add i64 %alloc_size, 15
  %and.i3 = and i64 %sub.i2, 4294967280
  store i64 %and.i3, ptr %call.i, align 8
  %total_allocated_.i = getelementptr inbounds i8, ptr %call.i, i64 8
  store i64 0, ptr %total_allocated_.i, align 8
  %initial_zone_size_.i = getelementptr inbounds i8, ptr %call.i, i64 16
  store i64 %initial_size, ptr %initial_zone_size_.i, align 8
  %last_zone_.i = getelementptr inbounds i8, ptr %call.i, i64 24
  %memory_allocator_.i = getelementptr inbounds i8, ptr %call.i, i64 40
  tail call void @llvm.memset.p0.i64(ptr noundef nonnull align 8 dereferenceable(16) %last_zone_.i, i8 0, i64 16, i1 false)
  store ptr %memory_allocator, ptr %memory_allocator_.i, align 8
  %add.ptr = getelementptr inbounds i8, ptr %call.i, i64 48
  %.fca.0.insert.i = insertvalue { ptr, ptr } poison, ptr %call.i, 0
  %.fca.1.insert.i = insertvalue { ptr, ptr } %.fca.0.insert.i, ptr %add.ptr, 1
  ret { ptr, ptr } %.fca.1.insert.i
}